target datalayout = "e-m:e-p270:32:32-p271:32:32-p272:64:64-i64:64-i128:128-f80:128-n8:16:32:64-S128"
target triple = "x86_64-pc-linux-gnu"

@.str.60 = private unnamed_addr constant [60 x i8] c"The specified size exceeds the maximum representable size.\0A\00", align 1
@g_assert_poison = external global ptr, align 8
@.str.61 = private unnamed_addr constant [40 x i8] c"src/hotspot/share/runtime/arguments.cpp\00", align 1
@DisplayVMOutputToStdout = external global i8, align 1
@_ZN13defaultStream14_output_streamE = external global ptr, align 8
@_ZN13defaultStream13_error_streamE = external global ptr, align 8

; Function Attrs: mustprogress nounwind uwtable
define linkonce_odr hidden noundef ptr @_ZN13defaultStream12error_streamEv() #1 comdat align 2 {
  %1 = load i8, ptr @DisplayVMOutputToStdout, align 1
  %2 = trunc i8 %1 to i1
  br i1 %2, label %3, label %5

3:                                                ; preds = %0
  %4 = load ptr, ptr @_ZN13defaultStream14_output_streamE, align 8
  br label %7

5:                                                ; preds = %0
  %6 = load ptr, ptr @_ZN13defaultStream13_error_streamE, align 8
  br label %7

7:                                                ; preds = %5, %3
  %8 = phi ptr [ %4, %3 ], [ %6, %5 ]
  ret ptr %8
}

; Function Attrs: mustprogress nounwind uwtable
define hidden void @_ZN9Arguments20describe_range_errorENS_9ArgsRangeE(i32 noundef %0) #1 align 2 {
  %2 = alloca i32, align 4
  store i32 %0, ptr %2, align 4
  %3 = load i32, ptr %2, align 4
  switch i32 %3, label %8 [
    i32 -1, label %4
    i32 -2, label %7
    i32 -3, label %7
    i32 0, label %7
  ]

4:                                                ; preds = %1
  %5 = call noundef ptr @_ZN13defaultStream12error_streamEv()
  %6 = call i32 (ptr, ptr, ...) @jio_fprintf(ptr noundef %5, ptr noundef @.str.60)
  br label %12

7:                                                ; preds = %1, %1, %1
  br label %12

8:                                                ; preds = %1
  br label %9

9:                                                ; preds = %8
  %10 = load ptr, ptr @g_assert_poison, align 8
  store i8 88, ptr %10, align 1
  call void @_Z28report_should_not_reach_herePKci(ptr noundef @.str.61, i32 noundef 742) #14
  unreachable

11:                                               ; No predecessors!
  br label %12

12:                                               ; preds = %11, %7, %4
  ret void
}