; Function Attrs: mustprogress nounwind uwtable
define hidden void @_ZN9Arguments20describe_range_errorENS_9ArgsRangeE(i32 noundef %0) local_unnamed_addr #0 align 2 {
  switch i32 %0, label %9 [
    i32 -1, label %2
    i32 -2, label %11
    i32 -3, label %11
    i32 0, label %11
  ]

2:                                                ; preds = %1
  %3 = load i8, ptr @DisplayVMOutputToStdout, align 1
  %4 = trunc i8 %3 to i1
  %5 = load ptr, ptr @_ZN13defaultStream14_output_streamE, align 8
  %6 = load ptr, ptr @_ZN13defaultStream13_error_streamE, align 8
  %7 = select i1 %4, ptr %5, ptr %6
  %8 = tail call i32 (ptr, ptr, ...) @jio_fprintf(ptr noundef %7, ptr noundef nonnull @.str.60) #31
  br label %11

9:                                                ; preds = %1
  %10 = load ptr, ptr @g_assert_poison, align 8
  store i8 88, ptr %10, align 1
  tail call void @_Z28report_should_not_reach_herePKci(ptr noundef nonnull @.str.61, i32 noundef 742) #33
  unreachable

11:                                               ; preds = %1, %1, %1, %2
  ret void
}